target datalayout = "e-m:e-p270:32:32-p271:32:32-p272:64:64-i64:64-i128:128-f80:128-n8:16:32:64-S128"
target triple = "x86_64-pc-linux-gnu"

%"struct.duckdb_miniz::mz_zip_archive" = type { i64, i64, i32, i32, i32, i32, i64, ptr, ptr, ptr, ptr, ptr, ptr, ptr, ptr, ptr }

; Function Attrs: alwaysinline mustprogress nounwind uwtable
define internal noundef i32 @_ZN12duckdb_minizL16mz_zip_set_errorEPNS_14mz_zip_archiveENS_12mz_zip_errorE(ptr noundef %0, i32 noundef %1) #8 {
  %3 = alloca ptr, align 8
  %4 = alloca i32, align 4
  store ptr %0, ptr %3, align 8, !tbaa !19
  store i32 %1, ptr %4, align 4, !tbaa !242
  %5 = load ptr, ptr %3, align 8, !tbaa !19
  %6 = icmp ne ptr %5, null
  br i1 %6, label %7, label %11

7:                                                ; preds = %2
  %8 = load i32, ptr %4, align 4, !tbaa !242
  %9 = load ptr, ptr %3, align 8, !tbaa !19
  %10 = getelementptr inbounds nuw %"struct.duckdb_miniz::mz_zip_archive", ptr %9, i32 0, i32 5
  store i32 %8, ptr %10, align 4, !tbaa !236
  br label %11

11:                                               ; preds = %7, %2
  ret i32 0
}

; Function Attrs: mustprogress uwtable
define internal noundef i32 @_ZN12duckdb_minizL25mz_zip_writer_write_zerosEPNS_14mz_zip_archiveEmj(ptr noundef %0, i64 noundef %1, i32 noundef %2) #5 {
  %4 = alloca i32, align 4
  %5 = alloca ptr, align 8
  %6 = alloca i64, align 8
  %7 = alloca i32, align 4
  %8 = alloca [4096 x i8], align 16
  %9 = alloca i32, align 4
  %10 = alloca i32, align 4
  store ptr %0, ptr %5, align 8, !tbaa !19
  store i64 %1, ptr %6, align 8, !tbaa !3
  store i32 %2, ptr %7, align 4, !tbaa !10
  call void @llvm.lifetime.start.p0(i64 4096, ptr %8) #11
  %11 = getelementptr inbounds [4096 x i8], ptr %8, i64 0, i64 0
  %12 = load i32, ptr %7, align 4, !tbaa !10
  %13 = zext i32 %12 to i64
  %14 = icmp ult i64 4096, %13
  br i1 %14, label %15, label %16

15:                                               ; preds = %3
  br label %19

16:                                               ; preds = %3
  %17 = load i32, ptr %7, align 4, !tbaa !10
  %18 = zext i32 %17 to i64
  br label %19

19:                                               ; preds = %16, %15
  %20 = phi i64 [ 4096, %15 ], [ %18, %16 ]
  call void @llvm.memset.p0.i64(ptr align 16 %11, i8 0, i64 %20, i1 false)
  br label %21

21:                                               ; preds = %62, %19
  %22 = load i32, ptr %7, align 4, !tbaa !10
  %23 = icmp ne i32 %22, 0
  br i1 %23, label %24, label %63

24:                                               ; preds = %21
  call void @llvm.lifetime.start.p0(i64 4, ptr %9) #11
  %25 = load i32, ptr %7, align 4, !tbaa !10
  %26 = zext i32 %25 to i64
  %27 = icmp ult i64 4096, %26
  br i1 %27, label %28, label %29

28:                                               ; preds = %24
  br label %32

29:                                               ; preds = %24
  %30 = load i32, ptr %7, align 4, !tbaa !10
  %31 = zext i32 %30 to i64
  br label %32

32:                                               ; preds = %29, %28
  %33 = phi i64 [ 4096, %28 ], [ %31, %29 ]
  %34 = trunc i64 %33 to i32
  store i32 %34, ptr %9, align 4, !tbaa !10
  %35 = load ptr, ptr %5, align 8, !tbaa !19
  %36 = getelementptr inbounds nuw %"struct.duckdb_miniz::mz_zip_archive", ptr %35, i32 0, i32 12
  %37 = load ptr, ptr %36, align 8, !tbaa !320
  %38 = load ptr, ptr %5, align 8, !tbaa !19
  %39 = getelementptr inbounds nuw %"struct.duckdb_miniz::mz_zip_archive", ptr %38, i32 0, i32 14
  %40 = load ptr, ptr %39, align 8, !tbaa !254
  %41 = load i64, ptr %6, align 8, !tbaa !3
  %42 = getelementptr inbounds [4096 x i8], ptr %8, i64 0, i64 0
  %43 = load i32, ptr %9, align 4, !tbaa !10
  %44 = zext i32 %43 to i64
  %45 = call noundef i64 %37(ptr noundef %40, i64 noundef %41, ptr noundef %42, i64 noundef %44)
  %46 = load i32, ptr %9, align 4, !tbaa !10
  %47 = zext i32 %46 to i64
  %48 = icmp ne i64 %45, %47
  br i1 %48, label %49, label %52

49:                                               ; preds = %32
  %50 = load ptr, ptr %5, align 8, !tbaa !19
  %51 = call noundef i32 @_ZN12duckdb_minizL16mz_zip_set_errorEPNS_14mz_zip_archiveENS_12mz_zip_errorE(ptr noundef %50, i32 noundef 19)
  store i32 %51, ptr %4, align 4
  store i32 1, ptr %10, align 4
  br label %60

52:                                               ; preds = %32
  %53 = load i32, ptr %9, align 4, !tbaa !10
  %54 = zext i32 %53 to i64
  %55 = load i64, ptr %6, align 8, !tbaa !3
  %56 = add i64 %55, %54
  store i64 %56, ptr %6, align 8, !tbaa !3
  %57 = load i32, ptr %9, align 4, !tbaa !10
  %58 = load i32, ptr %7, align 4, !tbaa !10
  %59 = sub i32 %58, %57
  store i32 %59, ptr %7, align 4, !tbaa !10
  store i32 0, ptr %10, align 4
  br label %60

60:                                               ; preds = %52, %49
  call void @llvm.lifetime.end.p0(i64 4, ptr %9) #11
  %61 = load i32, ptr %10, align 4
  switch i32 %61, label %64 [
    i32 0, label %62
  ]

62:                                               ; preds = %60
  br label %21, !llvm.loop !332

63:                                               ; preds = %21
  store i32 1, ptr %4, align 4
  store i32 1, ptr %10, align 4
  br label %64

64:                                               ; preds = %63, %60
  call void @llvm.lifetime.end.p0(i64 4096, ptr %8) #11
  %65 = load i32, ptr %4, align 4
  ret i32 %65
}