; Function Attrs: mustprogress uwtable
define internal fastcc noundef range(i32 0, 2) i32 @_ZN12duckdb_minizL25mz_zip_writer_write_zerosEPNS_14mz_zip_archiveEmj(ptr noundef captures(none) %0, i64 noundef %1, i32 noundef %2) unnamed_addr #8 {
  %4 = alloca [4096 x i8], align 16
  call void @llvm.lifetime.start.p0(i64 4096, ptr nonnull %4) #25
  %5 = tail call i32 @llvm.umin.i32(i32 %2, i32 4096)
  %6 = zext nneg i32 %5 to i64
  call void @llvm.memset.p0.i64(ptr nonnull align 16 %4, i8 0, i64 %6, i1 false)
  %.not25 = icmp eq i32 %2, 0
  br i1 %.not25, label %.loopexit, label %.lr.ph

.lr.ph:                                           ; preds = %3
  %7 = getelementptr inbounds nuw i8, ptr %0, i64 80
  %8 = getelementptr inbounds nuw i8, ptr %0, i64 96
  br label %9

9:                                                ; preds = %.lr.ph, %16
  %.01727 = phi i32 [ %2, %.lr.ph ], [ %18, %16 ]
  %.01926 = phi i64 [ %1, %.lr.ph ], [ %17, %16 ]
  %10 = call i32 @llvm.umin.i32(i32 %.01727, i32 4096)
  %11 = load ptr, ptr %7, align 8, !tbaa !294
  %12 = load ptr, ptr %8, align 8, !tbaa !228
  %13 = zext nneg i32 %10 to i64
  %14 = call noundef i64 %11(ptr noundef %12, i64 noundef %.01926, ptr noundef nonnull %4, i64 noundef %13)
  %.not22 = icmp eq i64 %14, %13
  br i1 %.not22, label %16, label %.thread

.thread:                                          ; preds = %9
  %15 = getelementptr inbounds nuw i8, ptr %0, i64 28
  store i32 19, ptr %15, align 4, !tbaa !213
  br label %.loopexit

16:                                               ; preds = %9
  %17 = add i64 %.01926, %13
  %18 = sub i32 %.01727, %10
  %.not = icmp eq i32 %18, 0
  br i1 %.not, label %.loopexit, label %9

.loopexit:                                        ; preds = %16, %3, %.thread
  %.2 = phi i32 [ 0, %.thread ], [ 1, %3 ], [ 1, %16 ]
  call void @llvm.lifetime.end.p0(i64 4096, ptr nonnull %4) #25
  ret i32 %.2
}